; Function Attrs: null_pointer_is_valid sspstrong uwtable
define internal range(i32 0, 2) i32 @dissect_net_dm_attrs_stats(ptr noundef %0, ptr readnone captures(none) %1, ptr noundef readonly captures(none) %2, ptr noundef %3, i32 noundef %4, i32 noundef %5, i32 noundef %6) #0 {
  %8 = and i32 %4, 16383
  %cond = icmp eq i32 %8, 0
  br i1 %cond, label %9, label %14

9:                                                ; preds = %7
  %10 = load i32, ptr @hf_net_dm_stats_dropped, align 4
  %11 = getelementptr inbounds nuw i8, ptr %2, i64 4
  %12 = load i32, ptr %11, align 4
  %13 = tail call ptr @proto_tree_add_item(ptr noundef %3, i32 noundef %10, ptr noundef %0, i32 noundef %5, i32 noundef %6, i32 noundef %12)
  br label %14

14:                                               ; preds = %7, %9
  %.0 = phi i32 [ 1, %9 ], [ 0, %7 ]
  ret i32 %.0
}